(lp0
S'17-JAN-1990'
p1
a(S'roi'
p2
S'dame'
p3
S'fou'
p4
S'tour'
p5
S'cavalier'
p6
S'pion'
p7
tp8
aS'blanc'
p9
aS'noir'
p10
a((S'Karpov'
p11
g9
tp12
(S'Kasparov'
p13
g10
tp14
tp15
a(dp16
(S'e'
p17
I1
tp18
(g2
g9
tp19
s(g17
I3
tp20
(g2
g10
tp21
sa.